target datalayout = "e-m:e-p270:32:32-p271:32:32-p272:64:64-i64:64-i128:128-f80:128-n8:16:32:64-S128"
target triple = "x86_64-pc-linux-gnu"

%struct.CVodeMemRec = type { ptr, double, ptr, ptr, i32, i32, double, double, ptr, i32, i32, ptr, ptr, i32, i32, ptr, i32, i32, double, double, ptr, i32, i32, i32, i32, ptr, ptr, ptr, i32, i32, ptr, ptr, ptr, i32, double, i32, i32, double, ptr, ptr, ptr, i32, ptr, ptr, i32, i32, i32, double, ptr, ptr, ptr, [13 x ptr], ptr, ptr, ptr, ptr, ptr, ptr, ptr, ptr, ptr, [13 x ptr], ptr, ptr, ptr, ptr, [13 x ptr], ptr, ptr, ptr, ptr, ptr, i32, [13 x ptr], ptr, ptr, ptr, ptr, ptr, i32, i32, double, i32, i32, i32, i32, i32, double, double, double, double, double, double, double, double, [14 x double], [6 x double], [13 x double], double, double, double, double, double, double, double, double, i32, double, double, i32, double, double, ptr, i32, i64, i32, i32, i32, double, double, double, double, double, double, double, double, double, double, double, double, i64, i32, i64, i64, i64, i64, i64, i64, i64, i64, i64, ptr, i64, i64, ptr, i64, i64, ptr, i64, i64, i64, i64, i64, i64, i32, double, double, double, i64, i64, i64, i64, i64, i64, ptr, i32, ptr, i32, ptr, i32, ptr, i32, i32, i64, i32, ptr, i32, ptr, ptr, ptr, ptr, ptr, ptr, i32, i32, ptr, ptr, ptr, ptr, ptr, i64, double, i32, i32, i64, double, double, double, i32, i32, double, i32, i32, i32, i32, i32, i32, i32, i32, i32, i32, i32, i32, i32, i32, i32, i32, ptr, i64, i32, [6 x [4 x double]], i32, i64, ptr, i32, ptr, ptr, double, double, double, ptr, ptr, ptr, double, double, i32, i32, i64, ptr, i32, ptr, i32, i32, [13 x double], ptr, ptr, ptr, i32, ptr, i32 }
%struct.CVadjMemRec = type { double, double, i32, i32, double, i32, double, ptr, i32, ptr, i32, ptr, i32, ptr, i64, i64, ptr, i64, i32, ptr, ptr, ptr, ptr, i32, i32, i32, i32, [13 x ptr], [13 x ptr], [13 x double], ptr, ptr }
%struct.CVodeBMemRec = type { i32, double, ptr, i32, i32, ptr, ptr, ptr, ptr, ptr, ptr, ptr, ptr, ptr, double, ptr, ptr }

@.str = private unnamed_addr constant [115 x i8] c"generated/home/dtcxzyw/WorkSpace/Projects/compilers/llvm-opt-benchmark/bench/sundials/sundials/src/cvodes/cvodea.c\00", align 1
@.str.1 = private unnamed_addr constant [26 x i8] c"cvode_mem = NULL illegal.\00", align 1
@.str.5 = private unnamed_addr constant [55 x i8] c"Illegal attempt to call before calling CVodeAdjMalloc.\00", align 1
@.str.10 = private unnamed_addr constant [25 x i8] c"Illegal value for which.\00", align 1
@__func__.CVodeInitBS = private unnamed_addr constant [12 x i8] c"CVodeInitBS\00", align 1

; Function Attrs: nounwind uwtable
define i32 @CVodeInitBS(ptr noundef %0, i32 noundef %1, ptr noundef %2, double noundef %3, ptr noundef %4) #0 {
  %6 = alloca i32, align 4
  %7 = alloca ptr, align 8
  %8 = alloca i32, align 4
  %9 = alloca ptr, align 8
  %10 = alloca double, align 8
  %11 = alloca ptr, align 8
  %12 = alloca ptr, align 8
  %13 = alloca ptr, align 8
  %14 = alloca ptr, align 8
  %15 = alloca ptr, align 8
  %16 = alloca i32, align 4
  %17 = alloca i32, align 4
  store ptr %0, ptr %7, align 8, !tbaa !3
  store i32 %1, ptr %8, align 4, !tbaa !9
  store ptr %2, ptr %9, align 8, !tbaa !3
  store double %3, ptr %10, align 8, !tbaa !69
  store ptr %4, ptr %11, align 8, !tbaa !70
  call void @llvm.lifetime.start.p0(i64 8, ptr %12) #6
  call void @llvm.lifetime.start.p0(i64 8, ptr %13) #6
  call void @llvm.lifetime.start.p0(i64 8, ptr %14) #6
  call void @llvm.lifetime.start.p0(i64 8, ptr %15) #6
  call void @llvm.lifetime.start.p0(i64 4, ptr %16) #6
  %18 = load ptr, ptr %7, align 8, !tbaa !3
  %19 = icmp eq ptr %18, null
  br i1 %19, label %20, label %21

20:                                               ; preds = %5
  call void (ptr, i32, i32, ptr, ptr, ptr, ...) @cvProcessError(ptr noundef null, i32 noundef -21, i32 noundef 843, ptr noundef @__func__.CVodeInitBS, ptr noundef @.str, ptr noundef @.str.1)
  store i32 -21, ptr %6, align 4
  store i32 1, ptr %17, align 4
  br label %87

21:                                               ; preds = %5
  %22 = load ptr, ptr %7, align 8, !tbaa !3
  store ptr %22, ptr %12, align 8, !tbaa !11
  %23 = load ptr, ptr %12, align 8, !tbaa !11
  %24 = getelementptr inbounds nuw %struct.CVodeMemRec, ptr %23, i32 0, i32 249
  %25 = load i32, ptr %24, align 8, !tbaa !54
  %26 = icmp eq i32 %25, 0
  br i1 %26, label %27, label %29

27:                                               ; preds = %21
  %28 = load ptr, ptr %12, align 8, !tbaa !11
  call void (ptr, i32, i32, ptr, ptr, ptr, ...) @cvProcessError(ptr noundef %28, i32 noundef -101, i32 noundef 854, ptr noundef @__func__.CVodeInitBS, ptr noundef @.str, ptr noundef @.str.5)
  store i32 -101, ptr %6, align 4
  store i32 1, ptr %17, align 4
  br label %87

29:                                               ; preds = %21
  %30 = load ptr, ptr %12, align 8, !tbaa !11
  %31 = getelementptr inbounds nuw %struct.CVodeMemRec, ptr %30, i32 0, i32 248
  %32 = load ptr, ptr %31, align 8, !tbaa !15
  store ptr %32, ptr %13, align 8, !tbaa !13
  %33 = load i32, ptr %8, align 4, !tbaa !9
  %34 = load ptr, ptr %13, align 8, !tbaa !13
  %35 = getelementptr inbounds nuw %struct.CVadjMemRec, ptr %34, i32 0, i32 8
  %36 = load i32, ptr %35, align 8, !tbaa !48
  %37 = icmp sge i32 %33, %36
  br i1 %37, label %38, label %40

38:                                               ; preds = %29
  %39 = load ptr, ptr %12, align 8, !tbaa !11
  call void (ptr, i32, i32, ptr, ptr, ptr, ...) @cvProcessError(ptr noundef %39, i32 noundef -22, i32 noundef 864, ptr noundef @__func__.CVodeInitBS, ptr noundef @.str, ptr noundef @.str.10)
  store i32 -22, ptr %6, align 4
  store i32 1, ptr %17, align 4
  br label %87

40:                                               ; preds = %29
  %41 = load ptr, ptr %13, align 8, !tbaa !13
  %42 = getelementptr inbounds nuw %struct.CVadjMemRec, ptr %41, i32 0, i32 7
  %43 = load ptr, ptr %42, align 8, !tbaa !46
  store ptr %43, ptr %14, align 8, !tbaa !103
  br label %44

44:                                               ; preds = %54, %40
  %45 = load ptr, ptr %14, align 8, !tbaa !103
  %46 = icmp ne ptr %45, null
  br i1 %46, label %47, label %58

47:                                               ; preds = %44
  %48 = load i32, ptr %8, align 4, !tbaa !9
  %49 = load ptr, ptr %14, align 8, !tbaa !103
  %50 = getelementptr inbounds nuw %struct.CVodeBMemRec, ptr %49, i32 0, i32 0
  %51 = load i32, ptr %50, align 8, !tbaa !154
  %52 = icmp eq i32 %48, %51
  br i1 %52, label %53, label %54

53:                                               ; preds = %47
  br label %58

54:                                               ; preds = %47
  %55 = load ptr, ptr %14, align 8, !tbaa !103
  %56 = getelementptr inbounds nuw %struct.CVodeBMemRec, ptr %55, i32 0, i32 16
  %57 = load ptr, ptr %56, align 8, !tbaa !104
  store ptr %57, ptr %14, align 8, !tbaa !103
  br label %44

58:                                               ; preds = %53, %44
  %59 = load ptr, ptr %14, align 8, !tbaa !103
  %60 = getelementptr inbounds nuw %struct.CVodeBMemRec, ptr %59, i32 0, i32 2
  %61 = load ptr, ptr %60, align 8, !tbaa !106
  store ptr %61, ptr %15, align 8, !tbaa !3
  %62 = load ptr, ptr %15, align 8, !tbaa !3
  %63 = load double, ptr %10, align 8, !tbaa !69
  %64 = load ptr, ptr %11, align 8, !tbaa !70
  %65 = call i32 @CVodeInit(ptr noundef %62, ptr noundef @CVArhs, double noundef %63, ptr noundef %64)
  store i32 %65, ptr %16, align 4, !tbaa !9
  %66 = load i32, ptr %16, align 4, !tbaa !9
  %67 = icmp ne i32 %66, 0
  br i1 %67, label %68, label %70

68:                                               ; preds = %58
  %69 = load i32, ptr %16, align 4, !tbaa !9
  store i32 %69, ptr %6, align 4
  store i32 1, ptr %17, align 4
  br label %87

70:                                               ; preds = %58
  %71 = load ptr, ptr %14, align 8, !tbaa !103
  %72 = getelementptr inbounds nuw %struct.CVodeBMemRec, ptr %71, i32 0, i32 3
  store i32 1, ptr %72, align 8, !tbaa !162
  %73 = load ptr, ptr %9, align 8, !tbaa !3
  %74 = load ptr, ptr %14, align 8, !tbaa !103
  %75 = getelementptr inbounds nuw %struct.CVodeBMemRec, ptr %74, i32 0, i32 6
  store ptr %73, ptr %75, align 8, !tbaa !156
  %76 = load double, ptr %10, align 8, !tbaa !69
  %77 = load ptr, ptr %14, align 8, !tbaa !103
  %78 = getelementptr inbounds nuw %struct.CVodeBMemRec, ptr %77, i32 0, i32 1
  store double %76, ptr %78, align 8, !tbaa !164
  %79 = load ptr, ptr %11, align 8, !tbaa !70
  %80 = call ptr @N_VClone(ptr noundef %79)
  %81 = load ptr, ptr %14, align 8, !tbaa !103
  %82 = getelementptr inbounds nuw %struct.CVodeBMemRec, ptr %81, i32 0, i32 15
  store ptr %80, ptr %82, align 8, !tbaa !109
  %83 = load ptr, ptr %11, align 8, !tbaa !70
  %84 = load ptr, ptr %14, align 8, !tbaa !103
  %85 = getelementptr inbounds nuw %struct.CVodeBMemRec, ptr %84, i32 0, i32 15
  %86 = load ptr, ptr %85, align 8, !tbaa !109
  call void @N_VScale(double noundef 1.000000e+00, ptr noundef %83, ptr noundef %86)
  store i32 0, ptr %6, align 4
  store i32 1, ptr %17, align 4
  br label %87

87:                                               ; preds = %70, %68, %38, %27, %20
  call void @llvm.lifetime.end.p0(i64 4, ptr %16) #6
  call void @llvm.lifetime.end.p0(i64 8, ptr %15) #6
  call void @llvm.lifetime.end.p0(i64 8, ptr %14) #6
  call void @llvm.lifetime.end.p0(i64 8, ptr %13) #6
  call void @llvm.lifetime.end.p0(i64 8, ptr %12) #6
  %88 = load i32, ptr %6, align 4
  ret i32 %88
}